; Function Attrs: nounwind sspstrong uwtable
define dso_local zeroext i1 @timerlist_expired(ptr noundef %timer_list) local_unnamed_addr #0 {
entry:
  %active_timers = getelementptr inbounds nuw i8, ptr %timer_list, i64 56
  %0 = load atomic i64, ptr %active_timers monotonic, align 8
  %tobool.not = icmp eq i64 %0, 0
  br i1 %tobool.not, label %return, label %for.body.us

for.body.us:                                      ; preds = %entry
  %active_timers_lock = getelementptr inbounds nuw i8, ptr %timer_list, i64 8
  %1 = load atomic i64, ptr @qemu_mutex_lock_func monotonic, align 8
  %2 = inttoptr i64 %1 to ptr
  tail call void %2(ptr noundef nonnull %active_timers_lock, ptr noundef nonnull @.str.3, i32 noundef 122) #17
  %3 = load ptr, ptr %active_timers, align 8
  %tobool3.not.us = icmp eq ptr %3, null
  br i1 %tobool3.not.us, label %glib_autoptr_cleanup_QemuLockable.exit, label %qemu_lockable_auto_unlock.exit.us

qemu_lockable_auto_unlock.exit.us:                ; preds = %for.body.us
  %4 = load i64, ptr %3, align 8
  tail call void @qemu_mutex_unlock_impl(ptr noundef nonnull %active_timers_lock, ptr noundef nonnull @.str.3, i32 noundef 132) #17
  %5 = load ptr, ptr %timer_list, align 8
  %type = getelementptr inbounds nuw i8, ptr %5, i64 8
  %6 = load i32, ptr %type, align 8
  %call8 = tail call i64 @qemu_clock_get_ns(i32 noundef %6)
  %cmp = icmp sle i64 %4, %call8
  br label %return

glib_autoptr_cleanup_QemuLockable.exit:           ; preds = %for.body.us
  tail call void @qemu_mutex_unlock_impl(ptr noundef nonnull %active_timers_lock, ptr noundef nonnull @.str.3, i32 noundef 132) #17
  br label %return

return:                                           ; preds = %glib_autoptr_cleanup_QemuLockable.exit, %entry, %qemu_lockable_auto_unlock.exit.us
  %retval.0 = phi i1 [ false, %glib_autoptr_cleanup_QemuLockable.exit ], [ %cmp, %qemu_lockable_auto_unlock.exit.us ], [ false, %entry ]
  ret i1 %retval.0
}